target datalayout = "e-m:e-p270:32:32-p271:32:32-p272:64:64-i64:64-i128:128-f80:128-n8:16:32:64-S128"
target triple = "x86_64-pc-linux-gnu"

%struct.mbedtls_cipher_info_t = type { ptr, i32 }
%struct.mbedtls_cipher_context_t = type { ptr, i32, i32, ptr, ptr, [16 x i8], i64, [16 x i8], i64, ptr, ptr }

; Function Attrs: nounwind uwtable
define hidden i32 @mbedtls_cipher_update_ad(ptr noundef %0, ptr noundef %1, i64 noundef %2) #0 {
  %4 = alloca i32, align 4
  %5 = alloca ptr, align 8
  %6 = alloca ptr, align 8
  %7 = alloca i64, align 8
  %8 = alloca i32, align 4
  %9 = alloca i32, align 4
  %10 = alloca i32, align 4
  store ptr %0, ptr %5, align 8, !tbaa !29
  store ptr %1, ptr %6, align 8, !tbaa !18
  store i64 %2, ptr %7, align 8, !tbaa !43
  %11 = load ptr, ptr %5, align 8, !tbaa !29
  %12 = getelementptr inbounds nuw %struct.mbedtls_cipher_context_t, ptr %11, i32 0, i32 0
  %13 = load ptr, ptr %12, align 8, !tbaa !36
  %14 = icmp eq ptr %13, null
  br i1 %14, label %15, label %16

15:                                               ; preds = %3
  store i32 -24832, ptr %4, align 4
  br label %68

16:                                               ; preds = %3
  %17 = load ptr, ptr %5, align 8, !tbaa !29
  %18 = getelementptr inbounds nuw %struct.mbedtls_cipher_context_t, ptr %17, i32 0, i32 0
  %19 = load ptr, ptr %18, align 8, !tbaa !36
  %20 = getelementptr inbounds nuw %struct.mbedtls_cipher_info_t, ptr %19, i32 0, i32 1
  %21 = load i32, ptr %20, align 8
  %22 = lshr i32 %21, 12
  %23 = and i32 %22, 15
  %24 = icmp eq i32 6, %23
  br i1 %24, label %25, label %32

25:                                               ; preds = %16
  %26 = load ptr, ptr %5, align 8, !tbaa !29
  %27 = getelementptr inbounds nuw %struct.mbedtls_cipher_context_t, ptr %26, i32 0, i32 9
  %28 = load ptr, ptr %27, align 8, !tbaa !35
  %29 = load ptr, ptr %6, align 8, !tbaa !18
  %30 = load i64, ptr %7, align 8, !tbaa !43
  %31 = call i32 @mbedtls_gcm_update_ad(ptr noundef %28, ptr noundef %29, i64 noundef %30)
  store i32 %31, ptr %4, align 4
  br label %68

32:                                               ; preds = %16
  %33 = load ptr, ptr %5, align 8, !tbaa !29
  %34 = getelementptr inbounds nuw %struct.mbedtls_cipher_context_t, ptr %33, i32 0, i32 0
  %35 = load ptr, ptr %34, align 8, !tbaa !36
  %36 = getelementptr inbounds nuw %struct.mbedtls_cipher_info_t, ptr %35, i32 0, i32 1
  %37 = load i32, ptr %36, align 8
  %38 = lshr i32 %37, 16
  %39 = and i32 %38, 255
  %40 = icmp eq i32 77, %39
  br i1 %40, label %41, label %67

41:                                               ; preds = %32
  call void @llvm.lifetime.start.p0(i64 4, ptr %8) #7
  call void @llvm.lifetime.start.p0(i64 4, ptr %9) #7
  %42 = load ptr, ptr %5, align 8, !tbaa !29
  %43 = getelementptr inbounds nuw %struct.mbedtls_cipher_context_t, ptr %42, i32 0, i32 2
  %44 = load i32, ptr %43, align 4, !tbaa !40
  %45 = icmp eq i32 %44, 1
  %46 = select i1 %45, i32 0, i32 1
  store i32 %46, ptr %9, align 4, !tbaa !3
  %47 = load ptr, ptr %5, align 8, !tbaa !29
  %48 = getelementptr inbounds nuw %struct.mbedtls_cipher_context_t, ptr %47, i32 0, i32 9
  %49 = load ptr, ptr %48, align 8, !tbaa !35
  %50 = load ptr, ptr %5, align 8, !tbaa !29
  %51 = getelementptr inbounds nuw %struct.mbedtls_cipher_context_t, ptr %50, i32 0, i32 7
  %52 = getelementptr inbounds [16 x i8], ptr %51, i64 0, i64 0
  %53 = load i32, ptr %9, align 4, !tbaa !3
  %54 = call i32 @mbedtls_chachapoly_starts(ptr noundef %49, ptr noundef %52, i32 noundef %53)
  store i32 %54, ptr %8, align 4, !tbaa !3
  %55 = load i32, ptr %8, align 4, !tbaa !3
  %56 = icmp ne i32 %55, 0
  br i1 %56, label %57, label %59

57:                                               ; preds = %41
  %58 = load i32, ptr %8, align 4, !tbaa !3
  store i32 %58, ptr %4, align 4
  store i32 1, ptr %10, align 4
  br label %66

59:                                               ; preds = %41
  %60 = load ptr, ptr %5, align 8, !tbaa !29
  %61 = getelementptr inbounds nuw %struct.mbedtls_cipher_context_t, ptr %60, i32 0, i32 9
  %62 = load ptr, ptr %61, align 8, !tbaa !35
  %63 = load ptr, ptr %6, align 8, !tbaa !18
  %64 = load i64, ptr %7, align 8, !tbaa !43
  %65 = call i32 @mbedtls_chachapoly_update_aad(ptr noundef %62, ptr noundef %63, i64 noundef %64)
  store i32 %65, ptr %4, align 4
  store i32 1, ptr %10, align 4
  br label %66

66:                                               ; preds = %59, %57
  call void @llvm.lifetime.end.p0(i64 4, ptr %9) #7
  call void @llvm.lifetime.end.p0(i64 4, ptr %8) #7
  br label %68

67:                                               ; preds = %32
  store i32 -24704, ptr %4, align 4
  br label %68

68:                                               ; preds = %67, %66, %25, %15
  %69 = load i32, ptr %4, align 4
  ret i32 %69
}