; Function Attrs: nounwind uwtable
define hidden i32 @mbedtls_cipher_update_ad(ptr noundef %0, ptr noundef %1, i64 noundef %2) local_unnamed_addr #8 {
  %4 = load ptr, ptr %0, align 8, !tbaa !29
  %5 = icmp eq ptr %4, null
  br i1 %5, label %30, label %6

6:                                                ; preds = %3
  %7 = getelementptr inbounds nuw i8, ptr %4, i64 8
  %8 = load i32, ptr %7, align 8
  %9 = and i32 %8, 61440
  %10 = icmp eq i32 %9, 24576
  br i1 %10, label %11, label %15

11:                                               ; preds = %6
  %12 = getelementptr inbounds nuw i8, ptr %0, i64 80
  %13 = load ptr, ptr %12, align 8, !tbaa !28
  %14 = tail call i32 @mbedtls_gcm_update_ad(ptr noundef %13, ptr noundef %1, i64 noundef %2) #15
  br label %30

15:                                               ; preds = %6
  %16 = and i32 %8, 16711680
  %17 = icmp eq i32 %16, 5046272
  br i1 %17, label %18, label %30

18:                                               ; preds = %15
  %19 = getelementptr inbounds nuw i8, ptr %0, i64 12
  %20 = load i32, ptr %19, align 4, !tbaa !33
  %21 = icmp ne i32 %20, 1
  %22 = zext i1 %21 to i32
  %23 = getelementptr inbounds nuw i8, ptr %0, i64 80
  %24 = load ptr, ptr %23, align 8, !tbaa !28
  %25 = getelementptr inbounds nuw i8, ptr %0, i64 56
  %26 = tail call i32 @mbedtls_chachapoly_starts(ptr noundef %24, ptr noundef nonnull %25, i32 noundef %22) #15
  %.not = icmp eq i32 %26, 0
  br i1 %.not, label %27, label %30

27:                                               ; preds = %18
  %28 = load ptr, ptr %23, align 8, !tbaa !28
  %29 = tail call i32 @mbedtls_chachapoly_update_aad(ptr noundef %28, ptr noundef %1, i64 noundef %2) #15
  br label %30

30:                                               ; preds = %15, %27, %18, %3, %11
  %.0 = phi i32 [ %14, %11 ], [ -24832, %3 ], [ %29, %27 ], [ %26, %18 ], [ -24704, %15 ]
  ret i32 %.0
}